target datalayout = "e-m:e-p270:32:32-p271:32:32-p272:64:64-i64:64-i128:128-f80:128-n8:16:32:64-S128"
target triple = "x86_64-pc-linux-gnu"

%class.params_ref = type { ptr }
%class.lackr = type <{ ptr, %class.params_ref, ptr, %class.array_util, %class.ref_vector, %class.obj_map, %class.obj_map.0, %class.ref, ptr, %class.ackr_helper, %class.th_rewriter, %class.ref_vector, %class.ref.5, i8, [7 x i8], %class.obj_mark, %class.ast_mark, ptr, i8, [7 x i8] }>
%class.array_util = type { %class.array_recognizers, ptr }
%class.array_recognizers = type { i32 }
%class.obj_map = type { %class.core_hashtable }
%class.core_hashtable = type <{ ptr, i32, i32, i32, [4 x i8] }>
%class.obj_map.0 = type { %class.core_hashtable.1 }
%class.core_hashtable.1 = type <{ ptr, i32, i32, i32, [4 x i8] }>
%class.ref = type { ptr }
%class.ackr_helper = type { %class.bv_util, %class.array_util }
%class.bv_util = type { %class.bv_recognizers, ptr, ptr }
%class.bv_recognizers = type { i32 }
%class.th_rewriter = type { ptr, %class.params_ref }
%class.ref_vector = type { %class.ref_vector_core }
%class.ref_vector_core = type { %class.ref_manager_wrapper, %class.ptr_vector }
%class.ref_manager_wrapper = type { ptr }
%class.ptr_vector = type { %class.vector }
%class.vector = type { ptr }
%class.ref.5 = type { ptr }
%class.obj_mark = type { [8 x i8], %class.bit_vector }
%class.bit_vector = type { i32, i32, ptr }
%class.ast_mark = type { ptr, %class.obj_mark, %class.obj_mark.6 }
%class.obj_mark.6 = type { [8 x i8], %class.bit_vector }
%class.ackr_info = type <{ ptr, ptr, %class.obj_map.44, %class.obj_map.49, %class.scoped_ptr, %class.expr_substitution, i32, i8, [3 x i8] }>
%class.obj_map.44 = type { %class.core_hashtable.45 }
%class.core_hashtable.45 = type <{ ptr, i32, i32, i32, [4 x i8] }>
%class.obj_map.49 = type { %class.core_hashtable.50 }
%class.core_hashtable.50 = type <{ ptr, i32, i32, i32, [4 x i8] }>
%class.scoped_ptr = type { ptr }
%class.expr_substitution = type <{ ptr, %class.obj_map.54, %class.scoped_ptr.59, %class.scoped_ptr.60, i8, [7 x i8] }>
%class.obj_map.54 = type { %class.core_hashtable.55 }
%class.core_hashtable.55 = type <{ ptr, i32, i32, i32, [4 x i8] }>
%class.scoped_ptr.59 = type { ptr }
%class.scoped_ptr.60 = type { ptr }

; Function Attrs: mustprogress uwtable
define linkonce_odr hidden void @_Z7deallocI9ackr_infoEvPT_(ptr noundef %0) #4 comdat {
  %2 = alloca ptr, align 8
  store ptr %0, ptr %2, align 8, !tbaa !138
  %3 = load ptr, ptr %2, align 8, !tbaa !138
  %4 = icmp eq ptr %3, null
  br i1 %4, label %5, label %6

5:                                                ; preds = %1
  br label %12

6:                                                ; preds = %1
  %7 = load ptr, ptr %2, align 8, !tbaa !138
  %8 = load ptr, ptr %7, align 8, !tbaa !78
  %9 = getelementptr inbounds ptr, ptr %8, i64 0
  %10 = load ptr, ptr %9, align 8
  call void %10(ptr noundef nonnull align 8 dereferenceable(133) %7) #3
  %11 = load ptr, ptr %2, align 8, !tbaa !138
  call void @_ZN6memory10deallocateEPv(ptr noundef %11)
  br label %12

12:                                               ; preds = %6, %5
  ret void
}

; Function Attrs: mustprogress uwtable
define linkonce_odr hidden void @_ZN9ackr_info7dec_refEv(ptr noundef nonnull align 8 dereferenceable(133) %0) #4 comdat align 2 {
  %2 = alloca ptr, align 8
  store ptr %0, ptr %2, align 8, !tbaa !138
  %3 = load ptr, ptr %2, align 8
  %4 = getelementptr inbounds nuw %class.ackr_info, ptr %3, i32 0, i32 6
  %5 = load i32, ptr %4, align 8, !tbaa !139
  %6 = add i32 %5, -1
  store i32 %6, ptr %4, align 8, !tbaa !139
  %7 = getelementptr inbounds nuw %class.ackr_info, ptr %3, i32 0, i32 6
  %8 = load i32, ptr %7, align 8, !tbaa !139
  %9 = icmp eq i32 %8, 0
  br i1 %9, label %10, label %11

10:                                               ; preds = %1
  call void @_Z7deallocI9ackr_infoEvPT_(ptr noundef %3)
  br label %11

11:                                               ; preds = %10, %1
  ret void
}

; Function Attrs: mustprogress uwtable
define linkonce_odr hidden void @_ZN3refI9ackr_infoE7dec_refEv(ptr noundef nonnull align 8 dereferenceable(8) %0) #4 comdat align 2 {
  %2 = alloca ptr, align 8
  store ptr %0, ptr %2, align 8, !tbaa !63
  %3 = load ptr, ptr %2, align 8
  %4 = getelementptr inbounds nuw %class.ref, ptr %3, i32 0, i32 0
  %5 = load ptr, ptr %4, align 8, !tbaa !65
  %6 = icmp ne ptr %5, null
  br i1 %6, label %7, label %10

7:                                                ; preds = %1
  %8 = getelementptr inbounds nuw %class.ref, ptr %3, i32 0, i32 0
  %9 = load ptr, ptr %8, align 8, !tbaa !65
  call void @_ZN9ackr_info7dec_refEv(ptr noundef nonnull align 8 dereferenceable(133) %9)
  br label %10

10:                                               ; preds = %7, %1
  ret void
}

; Function Attrs: mustprogress nounwind uwtable
define linkonce_odr hidden void @_ZN9ackr_info7inc_refEv(ptr noundef nonnull align 8 dereferenceable(133) %0) #5 comdat align 2 {
  %2 = alloca ptr, align 8
  store ptr %0, ptr %2, align 8, !tbaa !138
  %3 = load ptr, ptr %2, align 8
  %4 = getelementptr inbounds nuw %class.ackr_info, ptr %3, i32 0, i32 6
  %5 = load i32, ptr %4, align 8, !tbaa !139
  %6 = add i32 %5, 1
  store i32 %6, ptr %4, align 8, !tbaa !139
  ret void
}

; Function Attrs: mustprogress uwtable
define linkonce_odr hidden noundef nonnull align 8 dereferenceable(8) ptr @_ZN3refI9ackr_infoEaSEPS0_(ptr noundef nonnull align 8 dereferenceable(8) %0, ptr noundef %1) #4 comdat align 2 {
  %3 = alloca ptr, align 8
  %4 = alloca ptr, align 8
  store ptr %0, ptr %3, align 8, !tbaa !63
  store ptr %1, ptr %4, align 8, !tbaa !138
  %5 = load ptr, ptr %3, align 8
  %6 = load ptr, ptr %4, align 8, !tbaa !138
  %7 = icmp ne ptr %6, null
  br i1 %7, label %8, label %10

8:                                                ; preds = %2
  %9 = load ptr, ptr %4, align 8, !tbaa !138
  call void @_ZN9ackr_info7inc_refEv(ptr noundef nonnull align 8 dereferenceable(133) %9)
  br label %10

10:                                               ; preds = %8, %2
  call void @_ZN3refI9ackr_infoE7dec_refEv(ptr noundef nonnull align 8 dereferenceable(8) %5)
  %11 = load ptr, ptr %4, align 8, !tbaa !138
  %12 = getelementptr inbounds nuw %class.ref, ptr %5, i32 0, i32 0
  store ptr %11, ptr %12, align 8, !tbaa !65
  ret ptr %5
}

; Function Attrs: mustprogress uwtable
define hidden noundef zeroext i1 @_ZN5lackr4initEv(ptr noundef nonnull align 8 dereferenceable(297) %0) #4 align 2 personality ptr @__gxx_personality_v0 {
  %2 = alloca i1, align 1
  %3 = alloca ptr, align 8
  %4 = alloca %class.params_ref, align 8
  %5 = alloca ptr, align 8
  %6 = alloca i32, align 4
  %7 = alloca i32, align 4
  store ptr %0, ptr %3, align 8, !tbaa !3
  %8 = load ptr, ptr %3, align 8
  %9 = getelementptr inbounds nuw %class.lackr, ptr %8, i32 0, i32 18
  %10 = load i8, ptr %9, align 8, !tbaa !56, !range !101, !noundef !102
  %11 = trunc i8 %10 to i1
  br i1 %11, label %37, label %12

12:                                               ; preds = %1
  call void @llvm.lifetime.start.p0(i64 8, ptr %4) #3
  %13 = getelementptr inbounds nuw %class.lackr, ptr %8, i32 0, i32 1
  call void @_ZN10params_refC1ERKS_(ptr noundef nonnull align 8 dereferenceable(8) %4, ptr noundef nonnull align 8 dereferenceable(8) %13)
  %14 = getelementptr inbounds nuw %class.lackr, ptr %8, i32 0, i32 10
  invoke void @_ZN11th_rewriter11updt_paramsERK10params_ref(ptr noundef nonnull align 8 dereferenceable(16) %14, ptr noundef nonnull align 8 dereferenceable(8) %4)
          to label %15 unwind label %27

15:                                               ; preds = %12
  %16 = invoke noalias noundef ptr @_ZN6memory8allocateEm(i64 noundef 136)
          to label %17 unwind label %27

17:                                               ; preds = %15
  %18 = getelementptr inbounds nuw %class.lackr, ptr %8, i32 0, i32 0
  %19 = load ptr, ptr %18, align 8, !tbaa !105
  invoke void @_ZN9ackr_infoC2ER11ast_manager(ptr noundef nonnull align 8 dereferenceable(133) %16, ptr noundef nonnull align 8 dereferenceable(976) %19)
          to label %20 unwind label %27

20:                                               ; preds = %17
  %21 = getelementptr inbounds nuw %class.lackr, ptr %8, i32 0, i32 7
  %22 = invoke noundef nonnull align 8 dereferenceable(8) ptr @_ZN3refI9ackr_infoEaSEPS0_(ptr noundef nonnull align 8 dereferenceable(8) %21, ptr noundef %16)
          to label %23 unwind label %27

23:                                               ; preds = %20
  %24 = invoke noundef zeroext i1 @_ZN5lackr13collect_termsEv(ptr noundef nonnull align 8 dereferenceable(297) %8)
          to label %25 unwind label %27

25:                                               ; preds = %23
  br i1 %24, label %31, label %26

26:                                               ; preds = %25
  store i1 false, ptr %2, align 1
  store i32 1, ptr %7, align 4
  br label %34

27:                                               ; preds = %31, %23, %20, %17, %15, %12
  %28 = landingpad { ptr, i32 }
          cleanup
  %29 = extractvalue { ptr, i32 } %28, 0
  store ptr %29, ptr %5, align 8
  %30 = extractvalue { ptr, i32 } %28, 1
  store i32 %30, ptr %6, align 4
  call void @_ZN10params_refD1Ev(ptr noundef nonnull align 8 dereferenceable(8) %4) #3
  call void @llvm.lifetime.end.p0(i64 8, ptr %4) #3
  br label %40

31:                                               ; preds = %25
  invoke void @_ZN5lackr8abstractEv(ptr noundef nonnull align 8 dereferenceable(297) %8)
          to label %32 unwind label %27

32:                                               ; preds = %31
  %33 = getelementptr inbounds nuw %class.lackr, ptr %8, i32 0, i32 18
  store i8 1, ptr %33, align 8, !tbaa !56
  store i32 0, ptr %7, align 4
  br label %34

34:                                               ; preds = %32, %26
  call void @_ZN10params_refD1Ev(ptr noundef nonnull align 8 dereferenceable(8) %4) #3
  call void @llvm.lifetime.end.p0(i64 8, ptr %4) #3
  %35 = load i32, ptr %7, align 4
  switch i32 %35, label %45 [
    i32 0, label %36
    i32 1, label %38
  ]

36:                                               ; preds = %34
  br label %37

37:                                               ; preds = %36, %1
  store i1 true, ptr %2, align 1
  br label %38

38:                                               ; preds = %37, %34
  %39 = load i1, ptr %2, align 1
  ret i1 %39

40:                                               ; preds = %27
  %41 = load ptr, ptr %5, align 8
  %42 = load i32, ptr %6, align 4
  %43 = insertvalue { ptr, i32 } poison, ptr %41, 0
  %44 = insertvalue { ptr, i32 } %43, i32 %42, 1
  resume { ptr, i32 } %44

45:                                               ; preds = %34
  unreachable
}