; Function Attrs: mustprogress uwtable
define hidden noundef zeroext i1 @_ZN5lackr4initEv(ptr noundef nonnull align 8 dereferenceable(297) %0) local_unnamed_addr #3 align 2 personality ptr @__gxx_personality_v0 {
  %2 = alloca %class.params_ref, align 8
  %3 = getelementptr inbounds nuw i8, ptr %0, i64 296
  %4 = load i8, ptr %3, align 8, !tbaa !64, !range !124, !noundef !125
  %5 = trunc nuw i8 %4 to i1
  br i1 %5, label %33, label %6

6:                                                ; preds = %1
  call void @llvm.lifetime.start.p0(i64 8, ptr nonnull %2) #19
  %7 = getelementptr inbounds nuw i8, ptr %0, i64 8
  call void @_ZN10params_refC1ERKS_(ptr noundef nonnull align 8 dereferenceable(8) %2, ptr noundef nonnull align 8 dereferenceable(8) %7)
  %8 = getelementptr inbounds nuw i8, ptr %0, i64 160
  invoke void @_ZN11th_rewriter11updt_paramsERK10params_ref(ptr noundef nonnull align 8 dereferenceable(16) %8, ptr noundef nonnull align 8 dereferenceable(8) %2)
          to label %9 unwind label %30

9:                                                ; preds = %6
  %10 = invoke noalias noundef ptr @_ZN6memory8allocateEm(i64 noundef 136)
          to label %11 unwind label %30

11:                                               ; preds = %9
  %12 = load ptr, ptr %0, align 8, !tbaa !129
  invoke void @_ZN9ackr_infoC2ER11ast_manager(ptr noundef nonnull align 8 dereferenceable(133) %10, ptr noundef nonnull align 8 dereferenceable(976) %12)
          to label %13 unwind label %30

13:                                               ; preds = %11
  %14 = getelementptr inbounds nuw i8, ptr %0, i64 104
  %15 = getelementptr inbounds nuw i8, ptr %10, i64 128
  %16 = load i32, ptr %15, align 8, !tbaa !91
  %17 = add i32 %16, 1
  store i32 %17, ptr %15, align 8, !tbaa !91
  %18 = load ptr, ptr %14, align 8, !tbaa !27
  %.not.i.i = icmp eq ptr %18, null
  br i1 %.not.i.i, label %27, label %19

19:                                               ; preds = %13
  %20 = getelementptr inbounds nuw i8, ptr %18, i64 128
  %21 = load i32, ptr %20, align 8, !tbaa !91
  %22 = add i32 %21, -1
  store i32 %22, ptr %20, align 8, !tbaa !91
  %23 = icmp eq i32 %22, 0
  br i1 %23, label %24, label %27

24:                                               ; preds = %19
  %25 = load ptr, ptr %18, align 8, !tbaa !61
  %26 = load ptr, ptr %25, align 8
  call void %26(ptr noundef nonnull align 8 dereferenceable(133) %18) #19
  invoke void @_ZN6memory10deallocateEPv(ptr noundef nonnull align 8 dereferenceable(133) %18)
          to label %27 unwind label %30

27:                                               ; preds = %19, %13, %24
  store ptr %10, ptr %14, align 8, !tbaa !27
  %28 = invoke noundef zeroext i1 @_ZN5lackr13collect_termsEv(ptr noundef nonnull align 8 dereferenceable(297) %0)
          to label %29 unwind label %30

29:                                               ; preds = %27
  br i1 %28, label %32, label %.sink.split

30:                                               ; preds = %24, %32, %27, %11, %9, %6
  %31 = landingpad { ptr, i32 }
          cleanup
  call void @_ZN10params_refD1Ev(ptr noundef nonnull align 8 dereferenceable(8) %2) #19
  call void @llvm.lifetime.end.p0(i64 8, ptr nonnull %2) #19
  resume { ptr, i32 } %31

32:                                               ; preds = %29
  invoke void @_ZN5lackr8abstractEv(ptr noundef nonnull align 8 dereferenceable(297) %0)
          to label %.thread unwind label %30

.thread:                                          ; preds = %32
  store i8 1, ptr %3, align 8, !tbaa !64
  br label %.sink.split

.sink.split:                                      ; preds = %29, %.thread
  call void @_ZN10params_refD1Ev(ptr noundef nonnull align 8 dereferenceable(8) %2) #19
  call void @llvm.lifetime.end.p0(i64 8, ptr nonnull %2) #19
  br label %33

33:                                               ; preds = %.sink.split, %1
  %.1 = phi i1 [ true, %1 ], [ %28, %.sink.split ]
  ret i1 %.1
}